target datalayout = "e-m:e-p270:32:32-p271:32:32-p272:64:64-i64:64-i128:128-f80:128-n8:16:32:64-S128"
target triple = "x86_64-pc-linux-gnu"

@.str.29 = private unnamed_addr constant [3 x i8] c"%d\00", align 1
@.str.30 = private unnamed_addr constant [3 x i8] c"%c\00", align 1

; Function Attrs: inlinehint nounwind uwtable
define internal void @Abc_TruthWriteHexDigit(ptr noundef %0, i32 noundef %1) #2 {
  %3 = alloca ptr, align 8
  %4 = alloca i32, align 4
  store ptr %0, ptr %3, align 8, !tbaa !17
  store i32 %1, ptr %4, align 4, !tbaa !10
  %5 = load i32, ptr %4, align 4, !tbaa !10
  %6 = icmp slt i32 %5, 10
  br i1 %6, label %7, label %11

7:                                                ; preds = %2
  %8 = load ptr, ptr %3, align 8, !tbaa !17
  %9 = load i32, ptr %4, align 4, !tbaa !10
  %10 = call i32 (ptr, ptr, ...) @fprintf(ptr noundef %8, ptr noundef @.str.29, i32 noundef %9) #12
  br label %17

11:                                               ; preds = %2
  %12 = load ptr, ptr %3, align 8, !tbaa !17
  %13 = load i32, ptr %4, align 4, !tbaa !10
  %14 = add nsw i32 65, %13
  %15 = sub nsw i32 %14, 10
  %16 = call i32 (ptr, ptr, ...) @fprintf(ptr noundef %12, ptr noundef @.str.30, i32 noundef %15) #12
  br label %17

17:                                               ; preds = %11, %7
  ret void
}

; Function Attrs: inlinehint nounwind uwtable
define internal i32 @Abc_TruthGetHex(ptr noundef %0, i32 noundef %1) #2 {
  %3 = alloca ptr, align 8
  %4 = alloca i32, align 4
  store ptr %0, ptr %3, align 8, !tbaa !3
  store i32 %1, ptr %4, align 4, !tbaa !10
  %5 = load ptr, ptr %3, align 8, !tbaa !3
  %6 = load i32, ptr %4, align 4, !tbaa !10
  %7 = ashr i32 %6, 4
  %8 = sext i32 %7 to i64
  %9 = getelementptr inbounds i64, ptr %5, i64 %8
  %10 = load i64, ptr %9, align 8, !tbaa !15
  %11 = load i32, ptr %4, align 4, !tbaa !10
  %12 = shl i32 %11, 2
  %13 = and i32 %12, 63
  %14 = zext i32 %13 to i64
  %15 = lshr i64 %10, %14
  %16 = trunc i64 %15 to i32
  %17 = and i32 %16, 15
  ret i32 %17
}

; Function Attrs: nounwind uwtable
define void @Abc_TruthWriteHex(ptr noundef %0, ptr noundef %1, i32 noundef %2) #0 {
  %4 = alloca ptr, align 8
  %5 = alloca ptr, align 8
  %6 = alloca i32, align 4
  %7 = alloca i32, align 4
  %8 = alloca i32, align 4
  %9 = alloca i32, align 4
  store ptr %0, ptr %4, align 8, !tbaa !17
  store ptr %1, ptr %5, align 8, !tbaa !3
  store i32 %2, ptr %6, align 4, !tbaa !10
  call void @llvm.lifetime.start.p0(i64 4, ptr %7) #12
  call void @llvm.lifetime.start.p0(i64 4, ptr %8) #12
  call void @llvm.lifetime.start.p0(i64 4, ptr %9) #12
  %10 = load i32, ptr %6, align 4, !tbaa !10
  %11 = sub nsw i32 %10, 2
  %12 = shl i32 1, %11
  store i32 %12, ptr %7, align 4, !tbaa !10
  store i32 0, ptr %9, align 4, !tbaa !10
  br label %13

13:                                               ; preds = %23, %3
  %14 = load i32, ptr %9, align 4, !tbaa !10
  %15 = load i32, ptr %7, align 4, !tbaa !10
  %16 = icmp slt i32 %14, %15
  br i1 %16, label %17, label %26

17:                                               ; preds = %13
  %18 = load ptr, ptr %5, align 8, !tbaa !3
  %19 = load i32, ptr %9, align 4, !tbaa !10
  %20 = call i32 @Abc_TruthGetHex(ptr noundef %18, i32 noundef %19)
  store i32 %20, ptr %8, align 4, !tbaa !10
  %21 = load ptr, ptr %4, align 8, !tbaa !17
  %22 = load i32, ptr %8, align 4, !tbaa !10
  call void @Abc_TruthWriteHexDigit(ptr noundef %21, i32 noundef %22)
  br label %23

23:                                               ; preds = %17
  %24 = load i32, ptr %9, align 4, !tbaa !10
  %25 = add nsw i32 %24, 1
  store i32 %25, ptr %9, align 4, !tbaa !10
  br label %13, !llvm.loop !19

26:                                               ; preds = %13
  call void @llvm.lifetime.end.p0(i64 4, ptr %9) #12
  call void @llvm.lifetime.end.p0(i64 4, ptr %8) #12
  call void @llvm.lifetime.end.p0(i64 4, ptr %7) #12
  ret void
}