; Function Attrs: nofree nounwind uwtable
define void @Abc_TruthWriteHex(ptr noundef captures(none) %0, ptr noundef readonly captures(none) %1, i32 noundef %2) local_unnamed_addr #2 {
  %4 = add nsw i32 %2, -2
  %.not = icmp eq i32 %4, 31
  br i1 %.not, label %._crit_edge, label %.lr.ph.preheader

.lr.ph.preheader:                                 ; preds = %3
  %5 = shl nuw i32 1, %4
  %smax = tail call i32 @llvm.smax.i32(i32 %5, i32 1)
  br label %.lr.ph

.lr.ph:                                           ; preds = %.lr.ph.preheader, %Abc_TruthWriteHexDigit.exit
  %.07 = phi i32 [ %21, %Abc_TruthWriteHexDigit.exit ], [ 0, %.lr.ph.preheader ]
  %6 = lshr i32 %.07, 4
  %7 = zext nneg i32 %6 to i64
  %8 = getelementptr inbounds nuw i64, ptr %1, i64 %7
  %9 = load i64, ptr %8, align 8, !tbaa !6
  %10 = shl i32 %.07, 2
  %11 = and i32 %10, 60
  %12 = zext nneg i32 %11 to i64
  %13 = lshr i64 %9, %12
  %14 = trunc i64 %13 to i32
  %15 = and i32 %14, 15
  %16 = icmp samesign ult i32 %15, 10
  br i1 %16, label %17, label %19

17:                                               ; preds = %.lr.ph
  %18 = tail call i32 (ptr, ptr, ...) @fprintf(ptr noundef %0, ptr noundef nonnull @.str.29, i32 noundef range(i32 0, 16) %15) #21
  br label %Abc_TruthWriteHexDigit.exit

19:                                               ; preds = %.lr.ph
  %20 = add nuw nsw i32 %15, 55
  %fputc.i = tail call i32 @fputc(i32 %20, ptr %0)
  br label %Abc_TruthWriteHexDigit.exit

Abc_TruthWriteHexDigit.exit:                      ; preds = %17, %19
  %21 = add nuw nsw i32 %.07, 1
  %exitcond.not = icmp eq i32 %21, %smax
  br i1 %exitcond.not, label %._crit_edge, label %.lr.ph, !llvm.loop !10

._crit_edge:                                      ; preds = %Abc_TruthWriteHexDigit.exit, %3
  ret void
}